target datalayout = "e-m:e-p270:32:32-p271:32:32-p272:64:64-i64:64-i128:128-f80:128-n8:16:32:64-S128"
target triple = "x86_64-pc-linux-gnu"

@testctx = internal global ptr null, align 8
@.str.18 = private unnamed_addr constant [33 x i8] c"../openssl/test/evp_extra_test.c\00", align 1
@.str.100 = private unnamed_addr constant [7 x i8] c"sha256\00", align 1
@kMsg = internal constant [4 x i8] c"\01\02\03\04", align 1
@testpropq = internal global ptr null, align 8
@.str.145 = private unnamed_addr constant [26 x i8] c"md_ctx = EVP_MD_CTX_new()\00", align 1
@.str.159 = private unnamed_addr constant [52 x i8] c"sha256 = EVP_MD_fetch(testctx, \22sha256\22, testpropq)\00", align 1
@.str.160 = private unnamed_addr constant [56 x i8] c"shake256 = EVP_MD_fetch(testctx, \22shake256\22, testpropq)\00", align 1
@.str.161 = private unnamed_addr constant [9 x i8] c"shake256\00", align 1
@.str.162 = private unnamed_addr constant [40 x i8] c"EVP_DigestInit_ex(md_ctx, sha256, NULL)\00", align 1
@.str.163 = private unnamed_addr constant [45 x i8] c"EVP_DigestUpdate(md_ctx, kMsg, sizeof(kMsg))\00", align 1
@.str.164 = private unnamed_addr constant [34 x i8] c"EVP_DigestFinal(md_ctx, md, NULL)\00", align 1
@.str.165 = private unnamed_addr constant [27 x i8] c"EVP_MD_CTX_get0_md(md_ctx)\00", align 1
@.str.166 = private unnamed_addr constant [5 x i8] c"NULL\00", align 1
@.str.167 = private unnamed_addr constant [37 x i8] c"EVP_DigestFinal_ex(md_ctx, md, NULL)\00", align 1
@.str.168 = private unnamed_addr constant [38 x i8] c"EVP_DigestInit_ex(md_ctx, NULL, NULL)\00", align 1
@.str.169 = private unnamed_addr constant [42 x i8] c"EVP_DigestInit_ex(md_ctx, shake256, NULL)\00", align 1
@.str.170 = private unnamed_addr constant [43 x i8] c"EVP_DigestFinalXOF(md_ctx, md, sizeof(md))\00", align 1

; Function Attrs: nounwind uwtable
define internal i32 @test_EVP_Digest() #0 {
  %1 = alloca i32, align 4
  %2 = alloca ptr, align 8
  %3 = alloca [64 x i8], align 16
  %4 = alloca ptr, align 8
  %5 = alloca ptr, align 8
  call void @llvm.lifetime.start.p0(i64 4, ptr %1) #8
  store i32 0, ptr %1, align 4, !tbaa !9
  call void @llvm.lifetime.start.p0(i64 8, ptr %2) #8
  store ptr null, ptr %2, align 8, !tbaa !25
  call void @llvm.lifetime.start.p0(i64 64, ptr %3) #8
  call void @llvm.lifetime.start.p0(i64 8, ptr %4) #8
  store ptr null, ptr %4, align 8, !tbaa !19
  call void @llvm.lifetime.start.p0(i64 8, ptr %5) #8
  store ptr null, ptr %5, align 8, !tbaa !19
  %6 = call ptr @EVP_MD_CTX_new()
  store ptr %6, ptr %2, align 8, !tbaa !25
  %7 = call i32 @test_ptr(ptr noundef @.str.18, i32 noundef 1978, ptr noundef @.str.145, ptr noundef %6)
  %8 = icmp ne i32 %7, 0
  br i1 %8, label %10, label %9

9:                                                ; preds = %0
  br label %125

10:                                               ; preds = %0
  %11 = load ptr, ptr @testctx, align 8, !tbaa !11
  %12 = load ptr, ptr @testpropq, align 8, !tbaa !4
  %13 = call ptr @EVP_MD_fetch(ptr noundef %11, ptr noundef @.str.100, ptr noundef %12)
  store ptr %13, ptr %4, align 8, !tbaa !19
  %14 = call i32 @test_ptr(ptr noundef @.str.18, i32 noundef 1981, ptr noundef @.str.159, ptr noundef %13)
  %15 = icmp ne i32 %14, 0
  br i1 %15, label %16, label %22

16:                                               ; preds = %10
  %17 = load ptr, ptr @testctx, align 8, !tbaa !11
  %18 = load ptr, ptr @testpropq, align 8, !tbaa !4
  %19 = call ptr @EVP_MD_fetch(ptr noundef %17, ptr noundef @.str.161, ptr noundef %18)
  store ptr %19, ptr %5, align 8, !tbaa !19
  %20 = call i32 @test_ptr(ptr noundef @.str.18, i32 noundef 1982, ptr noundef @.str.160, ptr noundef %19)
  %21 = icmp ne i32 %20, 0
  br i1 %21, label %23, label %22

22:                                               ; preds = %16, %10
  br label %125

23:                                               ; preds = %16
  %24 = load ptr, ptr %2, align 8, !tbaa !25
  %25 = load ptr, ptr %4, align 8, !tbaa !19
  %26 = call i32 @EVP_DigestInit_ex(ptr noundef %24, ptr noundef %25, ptr noundef null)
  %27 = icmp ne i32 %26, 0
  %28 = zext i1 %27 to i32
  %29 = call i32 @test_true(ptr noundef @.str.18, i32 noundef 1985, ptr noundef @.str.162, i32 noundef %28)
  %30 = icmp ne i32 %29, 0
  br i1 %30, label %31, label %51

31:                                               ; preds = %23
  %32 = load ptr, ptr %2, align 8, !tbaa !25
  %33 = call i32 @EVP_DigestUpdate(ptr noundef %32, ptr noundef @kMsg, i64 noundef 4)
  %34 = icmp ne i32 %33, 0
  %35 = zext i1 %34 to i32
  %36 = call i32 @test_true(ptr noundef @.str.18, i32 noundef 1986, ptr noundef @.str.163, i32 noundef %35)
  %37 = icmp ne i32 %36, 0
  br i1 %37, label %38, label %51

38:                                               ; preds = %31
  %39 = load ptr, ptr %2, align 8, !tbaa !25
  %40 = getelementptr inbounds [64 x i8], ptr %3, i64 0, i64 0
  %41 = call i32 @EVP_DigestFinal(ptr noundef %39, ptr noundef %40, ptr noundef null)
  %42 = icmp ne i32 %41, 0
  %43 = zext i1 %42 to i32
  %44 = call i32 @test_true(ptr noundef @.str.18, i32 noundef 1987, ptr noundef @.str.164, i32 noundef %43)
  %45 = icmp ne i32 %44, 0
  br i1 %45, label %46, label %51

46:                                               ; preds = %38
  %47 = load ptr, ptr %2, align 8, !tbaa !25
  %48 = call ptr @EVP_MD_CTX_get0_md(ptr noundef %47)
  %49 = call i32 @test_ptr_eq(ptr noundef @.str.18, i32 noundef 1989, ptr noundef @.str.165, ptr noundef @.str.166, ptr noundef %48, ptr noundef null)
  %50 = icmp ne i32 %49, 0
  br i1 %50, label %52, label %51

51:                                               ; preds = %46, %38, %31, %23
  br label %125

52:                                               ; preds = %46
  %53 = load ptr, ptr %2, align 8, !tbaa !25
  %54 = load ptr, ptr %4, align 8, !tbaa !19
  %55 = call i32 @EVP_DigestInit_ex(ptr noundef %53, ptr noundef %54, ptr noundef null)
  %56 = icmp ne i32 %55, 0
  %57 = zext i1 %56 to i32
  %58 = call i32 @test_true(ptr noundef @.str.18, i32 noundef 1992, ptr noundef @.str.162, i32 noundef %57)
  %59 = icmp ne i32 %58, 0
  br i1 %59, label %60, label %87

60:                                               ; preds = %52
  %61 = load ptr, ptr %2, align 8, !tbaa !25
  %62 = call i32 @EVP_DigestUpdate(ptr noundef %61, ptr noundef @kMsg, i64 noundef 4)
  %63 = icmp ne i32 %62, 0
  %64 = zext i1 %63 to i32
  %65 = call i32 @test_true(ptr noundef @.str.18, i32 noundef 1993, ptr noundef @.str.163, i32 noundef %64)
  %66 = icmp ne i32 %65, 0
  br i1 %66, label %67, label %87

67:                                               ; preds = %60
  %68 = load ptr, ptr %2, align 8, !tbaa !25
  %69 = getelementptr inbounds [64 x i8], ptr %3, i64 0, i64 0
  %70 = call i32 @EVP_DigestFinal_ex(ptr noundef %68, ptr noundef %69, ptr noundef null)
  %71 = icmp ne i32 %70, 0
  %72 = zext i1 %71 to i32
  %73 = call i32 @test_true(ptr noundef @.str.18, i32 noundef 1994, ptr noundef @.str.167, i32 noundef %72)
  %74 = icmp ne i32 %73, 0
  br i1 %74, label %75, label %87

75:                                               ; preds = %67
  %76 = load ptr, ptr %2, align 8, !tbaa !25
  %77 = call ptr @EVP_MD_CTX_get0_md(ptr noundef %76)
  %78 = call i32 @test_ptr(ptr noundef @.str.18, i32 noundef 1996, ptr noundef @.str.165, ptr noundef %77)
  %79 = icmp ne i32 %78, 0
  br i1 %79, label %80, label %87

80:                                               ; preds = %75
  %81 = load ptr, ptr %2, align 8, !tbaa !25
  %82 = call i32 @EVP_DigestInit_ex(ptr noundef %81, ptr noundef null, ptr noundef null)
  %83 = icmp ne i32 %82, 0
  %84 = zext i1 %83 to i32
  %85 = call i32 @test_true(ptr noundef @.str.18, i32 noundef 2001, ptr noundef @.str.168, i32 noundef %84)
  %86 = icmp ne i32 %85, 0
  br i1 %86, label %88, label %87

87:                                               ; preds = %80, %75, %67, %60, %52
  br label %125

88:                                               ; preds = %80
  %89 = load ptr, ptr %2, align 8, !tbaa !25
  %90 = load ptr, ptr %5, align 8, !tbaa !19
  %91 = call i32 @EVP_DigestInit_ex(ptr noundef %89, ptr noundef %90, ptr noundef null)
  %92 = icmp ne i32 %91, 0
  %93 = zext i1 %92 to i32
  %94 = call i32 @test_true(ptr noundef @.str.18, i32 noundef 2004, ptr noundef @.str.169, i32 noundef %93)
  %95 = icmp ne i32 %94, 0
  br i1 %95, label %96, label %123

96:                                               ; preds = %88
  %97 = load ptr, ptr %2, align 8, !tbaa !25
  %98 = call i32 @EVP_DigestUpdate(ptr noundef %97, ptr noundef @kMsg, i64 noundef 4)
  %99 = icmp ne i32 %98, 0
  %100 = zext i1 %99 to i32
  %101 = call i32 @test_true(ptr noundef @.str.18, i32 noundef 2005, ptr noundef @.str.163, i32 noundef %100)
  %102 = icmp ne i32 %101, 0
  br i1 %102, label %103, label %123

103:                                              ; preds = %96
  %104 = load ptr, ptr %2, align 8, !tbaa !25
  %105 = getelementptr inbounds [64 x i8], ptr %3, i64 0, i64 0
  %106 = call i32 @EVP_DigestFinalXOF(ptr noundef %104, ptr noundef %105, i64 noundef 64)
  %107 = icmp ne i32 %106, 0
  %108 = zext i1 %107 to i32
  %109 = call i32 @test_true(ptr noundef @.str.18, i32 noundef 2006, ptr noundef @.str.170, i32 noundef %108)
  %110 = icmp ne i32 %109, 0
  br i1 %110, label %111, label %123

111:                                              ; preds = %103
  %112 = load ptr, ptr %2, align 8, !tbaa !25
  %113 = call ptr @EVP_MD_CTX_get0_md(ptr noundef %112)
  %114 = call i32 @test_ptr(ptr noundef @.str.18, i32 noundef 2008, ptr noundef @.str.165, ptr noundef %113)
  %115 = icmp ne i32 %114, 0
  br i1 %115, label %116, label %123

116:                                              ; preds = %111
  %117 = load ptr, ptr %2, align 8, !tbaa !25
  %118 = call i32 @EVP_DigestInit_ex(ptr noundef %117, ptr noundef null, ptr noundef null)
  %119 = icmp ne i32 %118, 0
  %120 = zext i1 %119 to i32
  %121 = call i32 @test_true(ptr noundef @.str.18, i32 noundef 2009, ptr noundef @.str.168, i32 noundef %120)
  %122 = icmp ne i32 %121, 0
  br i1 %122, label %124, label %123

123:                                              ; preds = %116, %111, %103, %96, %88
  br label %125

124:                                              ; preds = %116
  store i32 1, ptr %1, align 4, !tbaa !9
  br label %125

125:                                              ; preds = %124, %123, %87, %51, %22, %9
  %126 = load ptr, ptr %2, align 8, !tbaa !25
  call void @EVP_MD_CTX_free(ptr noundef %126)
  %127 = load ptr, ptr %4, align 8, !tbaa !19
  call void @EVP_MD_free(ptr noundef %127)
  %128 = load ptr, ptr %5, align 8, !tbaa !19
  call void @EVP_MD_free(ptr noundef %128)
  %129 = load i32, ptr %1, align 4, !tbaa !9
  call void @llvm.lifetime.end.p0(i64 8, ptr %5) #8
  call void @llvm.lifetime.end.p0(i64 8, ptr %4) #8
  call void @llvm.lifetime.end.p0(i64 64, ptr %3) #8
  call void @llvm.lifetime.end.p0(i64 8, ptr %2) #8
  call void @llvm.lifetime.end.p0(i64 4, ptr %1) #8
  ret i32 %129
}