; Function Attrs: nounwind uwtable
define internal range(i32 0, 2) i32 @test_EVP_Digest() #1 {
  %1 = alloca [64 x i8], align 16
  call void @llvm.lifetime.start.p0(i64 64, ptr nonnull %1) #9
  %2 = tail call ptr @EVP_MD_CTX_new() #9
  %3 = tail call i32 @test_ptr(ptr noundef nonnull @.str.18, i32 noundef 1978, ptr noundef nonnull @.str.145, ptr noundef %2) #9
  %.not = icmp eq i32 %3, 0
  br i1 %.not, label %76, label %4

4:                                                ; preds = %0
  %5 = load ptr, ptr @testctx, align 8, !tbaa !6
  %6 = tail call ptr @EVP_MD_fetch(ptr noundef %5, ptr noundef nonnull @.str.100, ptr noundef null) #9
  %7 = tail call i32 @test_ptr(ptr noundef nonnull @.str.18, i32 noundef 1981, ptr noundef nonnull @.str.159, ptr noundef %6) #9
  %.not22 = icmp eq i32 %7, 0
  br i1 %.not22, label %76, label %8

8:                                                ; preds = %4
  %9 = load ptr, ptr @testctx, align 8, !tbaa !6
  %10 = tail call ptr @EVP_MD_fetch(ptr noundef %9, ptr noundef nonnull @.str.161, ptr noundef null) #9
  %11 = tail call i32 @test_ptr(ptr noundef nonnull @.str.18, i32 noundef 1982, ptr noundef nonnull @.str.160, ptr noundef %10) #9
  %.not23 = icmp eq i32 %11, 0
  br i1 %.not23, label %76, label %12

12:                                               ; preds = %8
  %13 = tail call i32 @EVP_DigestInit_ex(ptr noundef %2, ptr noundef %6, ptr noundef null) #9
  %14 = icmp ne i32 %13, 0
  %15 = zext i1 %14 to i32
  %16 = tail call i32 @test_true(ptr noundef nonnull @.str.18, i32 noundef 1985, ptr noundef nonnull @.str.162, i32 noundef %15) #9
  %.not24 = icmp eq i32 %16, 0
  br i1 %.not24, label %76, label %17

17:                                               ; preds = %12
  %18 = tail call i32 @EVP_DigestUpdate(ptr noundef %2, ptr noundef nonnull @kMsg, i64 noundef 4) #9
  %19 = icmp ne i32 %18, 0
  %20 = zext i1 %19 to i32
  %21 = tail call i32 @test_true(ptr noundef nonnull @.str.18, i32 noundef 1986, ptr noundef nonnull @.str.163, i32 noundef %20) #9
  %.not25 = icmp eq i32 %21, 0
  br i1 %.not25, label %76, label %22

22:                                               ; preds = %17
  %23 = call i32 @EVP_DigestFinal(ptr noundef %2, ptr noundef nonnull %1, ptr noundef null) #9
  %24 = icmp ne i32 %23, 0
  %25 = zext i1 %24 to i32
  %26 = call i32 @test_true(ptr noundef nonnull @.str.18, i32 noundef 1987, ptr noundef nonnull @.str.164, i32 noundef %25) #9
  %.not26 = icmp eq i32 %26, 0
  br i1 %.not26, label %76, label %27

27:                                               ; preds = %22
  %28 = call ptr @EVP_MD_CTX_get0_md(ptr noundef %2) #9
  %29 = call i32 @test_ptr_eq(ptr noundef nonnull @.str.18, i32 noundef 1989, ptr noundef nonnull @.str.165, ptr noundef nonnull @.str.166, ptr noundef %28, ptr noundef null) #9
  %.not27 = icmp eq i32 %29, 0
  br i1 %.not27, label %76, label %30

30:                                               ; preds = %27
  %31 = call i32 @EVP_DigestInit_ex(ptr noundef %2, ptr noundef %6, ptr noundef null) #9
  %32 = icmp ne i32 %31, 0
  %33 = zext i1 %32 to i32
  %34 = call i32 @test_true(ptr noundef nonnull @.str.18, i32 noundef 1992, ptr noundef nonnull @.str.162, i32 noundef %33) #9
  %.not28 = icmp eq i32 %34, 0
  br i1 %.not28, label %76, label %35

35:                                               ; preds = %30
  %36 = call i32 @EVP_DigestUpdate(ptr noundef %2, ptr noundef nonnull @kMsg, i64 noundef 4) #9
  %37 = icmp ne i32 %36, 0
  %38 = zext i1 %37 to i32
  %39 = call i32 @test_true(ptr noundef nonnull @.str.18, i32 noundef 1993, ptr noundef nonnull @.str.163, i32 noundef %38) #9
  %.not29 = icmp eq i32 %39, 0
  br i1 %.not29, label %76, label %40

40:                                               ; preds = %35
  %41 = call i32 @EVP_DigestFinal_ex(ptr noundef %2, ptr noundef nonnull %1, ptr noundef null) #9
  %42 = icmp ne i32 %41, 0
  %43 = zext i1 %42 to i32
  %44 = call i32 @test_true(ptr noundef nonnull @.str.18, i32 noundef 1994, ptr noundef nonnull @.str.167, i32 noundef %43) #9
  %.not30 = icmp eq i32 %44, 0
  br i1 %.not30, label %76, label %45

45:                                               ; preds = %40
  %46 = call ptr @EVP_MD_CTX_get0_md(ptr noundef %2) #9
  %47 = call i32 @test_ptr(ptr noundef nonnull @.str.18, i32 noundef 1996, ptr noundef nonnull @.str.165, ptr noundef %46) #9
  %.not31 = icmp eq i32 %47, 0
  br i1 %.not31, label %76, label %48

48:                                               ; preds = %45
  %49 = call i32 @EVP_DigestInit_ex(ptr noundef %2, ptr noundef null, ptr noundef null) #9
  %50 = icmp ne i32 %49, 0
  %51 = zext i1 %50 to i32
  %52 = call i32 @test_true(ptr noundef nonnull @.str.18, i32 noundef 2001, ptr noundef nonnull @.str.168, i32 noundef %51) #9
  %.not32 = icmp eq i32 %52, 0
  br i1 %.not32, label %76, label %53

53:                                               ; preds = %48
  %54 = call i32 @EVP_DigestInit_ex(ptr noundef %2, ptr noundef %10, ptr noundef null) #9
  %55 = icmp ne i32 %54, 0
  %56 = zext i1 %55 to i32
  %57 = call i32 @test_true(ptr noundef nonnull @.str.18, i32 noundef 2004, ptr noundef nonnull @.str.169, i32 noundef %56) #9
  %.not33 = icmp eq i32 %57, 0
  br i1 %.not33, label %76, label %58

58:                                               ; preds = %53
  %59 = call i32 @EVP_DigestUpdate(ptr noundef %2, ptr noundef nonnull @kMsg, i64 noundef 4) #9
  %60 = icmp ne i32 %59, 0
  %61 = zext i1 %60 to i32
  %62 = call i32 @test_true(ptr noundef nonnull @.str.18, i32 noundef 2005, ptr noundef nonnull @.str.163, i32 noundef %61) #9
  %.not34 = icmp eq i32 %62, 0
  br i1 %.not34, label %76, label %63

63:                                               ; preds = %58
  %64 = call i32 @EVP_DigestFinalXOF(ptr noundef %2, ptr noundef nonnull %1, i64 noundef 64) #9
  %65 = icmp ne i32 %64, 0
  %66 = zext i1 %65 to i32
  %67 = call i32 @test_true(ptr noundef nonnull @.str.18, i32 noundef 2006, ptr noundef nonnull @.str.170, i32 noundef %66) #9
  %.not35 = icmp eq i32 %67, 0
  br i1 %.not35, label %76, label %68

68:                                               ; preds = %63
  %69 = call ptr @EVP_MD_CTX_get0_md(ptr noundef %2) #9
  %70 = call i32 @test_ptr(ptr noundef nonnull @.str.18, i32 noundef 2008, ptr noundef nonnull @.str.165, ptr noundef %69) #9
  %.not36 = icmp eq i32 %70, 0
  br i1 %.not36, label %76, label %71

71:                                               ; preds = %68
  %72 = call i32 @EVP_DigestInit_ex(ptr noundef %2, ptr noundef null, ptr noundef null) #9
  %73 = icmp ne i32 %72, 0
  %74 = zext i1 %73 to i32
  %75 = call i32 @test_true(ptr noundef nonnull @.str.18, i32 noundef 2009, ptr noundef nonnull @.str.168, i32 noundef %74) #9
  %.not37 = icmp ne i32 %75, 0
  %spec.select = zext i1 %.not37 to i32
  br label %76

76:                                               ; preds = %71, %53, %58, %63, %68, %30, %35, %40, %45, %48, %12, %17, %22, %27, %4, %8, %0
  %.021 = phi i32 [ 0, %68 ], [ 0, %63 ], [ 0, %58 ], [ 0, %53 ], [ 0, %48 ], [ 0, %45 ], [ 0, %40 ], [ 0, %35 ], [ 0, %30 ], [ 0, %27 ], [ 0, %22 ], [ 0, %17 ], [ 0, %12 ], [ 0, %8 ], [ 0, %4 ], [ 0, %0 ], [ %spec.select, %71 ]
  %.020 = phi ptr [ %6, %68 ], [ %6, %63 ], [ %6, %58 ], [ %6, %53 ], [ %6, %48 ], [ %6, %45 ], [ %6, %40 ], [ %6, %35 ], [ %6, %30 ], [ %6, %27 ], [ %6, %22 ], [ %6, %17 ], [ %6, %12 ], [ %6, %8 ], [ %6, %4 ], [ null, %0 ], [ %6, %71 ]
  %.0 = phi ptr [ %10, %68 ], [ %10, %63 ], [ %10, %58 ], [ %10, %53 ], [ %10, %48 ], [ %10, %45 ], [ %10, %40 ], [ %10, %35 ], [ %10, %30 ], [ %10, %27 ], [ %10, %22 ], [ %10, %17 ], [ %10, %12 ], [ %10, %8 ], [ null, %4 ], [ null, %0 ], [ %10, %71 ]
  call void @EVP_MD_CTX_free(ptr noundef %2) #9
  call void @EVP_MD_free(ptr noundef %.020) #9
  call void @EVP_MD_free(ptr noundef %.0) #9
  call void @llvm.lifetime.end.p0(i64 64, ptr nonnull %1) #9
  ret i32 %.021
}